target datalayout = "e-m:e-p270:32:32-p271:32:32-p272:64:64-i64:64-i128:128-f80:128-n8:16:32:64-S128"
target triple = "x86_64-pc-linux-gnu"

%struct.SDL_Surface = type { i32, i32, i32, i32, i32, ptr, i32, ptr, i32, i32, ptr, i32, ptr, i32, ptr, i32, %struct.SDL_Rect, %struct.SDL_BlitMap }
%struct.SDL_Rect = type { i32, i32, i32, i32 }
%struct.SDL_BlitMap = type { i32, ptr, ptr, %struct.SDL_BlitInfo, i32, i32 }
%struct.SDL_BlitInfo = type { ptr, ptr, i32, i32, i32, i32, ptr, ptr, i32, i32, i32, i32, ptr, ptr, ptr, ptr, ptr, ptr, i32, i32, i8, i8, i8, i8 }
%struct.SDL_PixelFormatDetails = type { i32, i8, i8, [2 x i8], i32, i32, i32, i32, i8, i8, i8, i8, i8, i8, i8, i8 }

@.str = private unnamed_addr constant [26 x i8] c"Parameter '%s' is invalid\00", align 1
@.str.1 = private unnamed_addr constant [22 x i8] c"SDL_BlendPoint(): dst\00", align 1
@.str.2 = private unnamed_addr constant [45 x i8] c"SDL_BlendPoint(): Unsupported surface format\00", align 1

; Function Attrs: nounwind uwtable
define hidden zeroext i1 @SDL_BlendPoint(ptr noundef %0, i32 noundef %1, i32 noundef %2, i32 noundef %3, i8 noundef zeroext %4, i8 noundef zeroext %5, i8 noundef zeroext %6, i8 noundef zeroext %7) #0 {
  %9 = alloca i1, align 1
  %10 = alloca ptr, align 8
  %11 = alloca i32, align 4
  %12 = alloca i32, align 4
  %13 = alloca i32, align 4
  %14 = alloca i8, align 1
  %15 = alloca i8, align 1
  %16 = alloca i8, align 1
  %17 = alloca i8, align 1
  store ptr %0, ptr %10, align 8
  store i32 %1, ptr %11, align 4
  store i32 %2, ptr %12, align 4
  store i32 %3, ptr %13, align 4
  store i8 %4, ptr %14, align 1
  store i8 %5, ptr %15, align 1
  store i8 %6, ptr %16, align 1
  store i8 %7, ptr %17, align 1
  %18 = load ptr, ptr %10, align 8
  %19 = call zeroext i1 @SDL_SurfaceValid(ptr noundef %18)
  br i1 %19, label %22, label %20

20:                                               ; preds = %8
  %21 = call zeroext i1 (ptr, ...) @SDL_SetError_REAL(ptr noundef @.str, ptr noundef @.str.1)
  store i1 %21, ptr %9, align 1
  br label %216

22:                                               ; preds = %8
  %23 = load ptr, ptr %10, align 8
  %24 = getelementptr inbounds nuw %struct.SDL_Surface, ptr %23, i32 0, i32 1
  %25 = load i32, ptr %24, align 4
  %26 = icmp ne i32 %25, 0
  br i1 %26, label %27, label %35

27:                                               ; preds = %22
  %28 = load ptr, ptr %10, align 8
  %29 = getelementptr inbounds nuw %struct.SDL_Surface, ptr %28, i32 0, i32 1
  %30 = load i32, ptr %29, align 4
  %31 = lshr i32 %30, 28
  %32 = and i32 %31, 15
  %33 = icmp ne i32 %32, 1
  br i1 %33, label %34, label %35

34:                                               ; preds = %27
  br label %41

35:                                               ; preds = %27, %22
  %36 = load ptr, ptr %10, align 8
  %37 = getelementptr inbounds nuw %struct.SDL_Surface, ptr %36, i32 0, i32 1
  %38 = load i32, ptr %37, align 4
  %39 = lshr i32 %38, 8
  %40 = and i32 %39, 255
  br label %41

41:                                               ; preds = %35, %34
  %42 = phi i32 [ 0, %34 ], [ %40, %35 ]
  %43 = icmp ult i32 %42, 8
  br i1 %43, label %44, label %46

44:                                               ; preds = %41
  %45 = call zeroext i1 (ptr, ...) @SDL_SetError_REAL(ptr noundef @.str.2)
  store i1 %45, ptr %9, align 1
  br label %216

46:                                               ; preds = %41
  %47 = load i32, ptr %11, align 4
  %48 = load ptr, ptr %10, align 8
  %49 = getelementptr inbounds nuw %struct.SDL_Surface, ptr %48, i32 0, i32 16
  %50 = getelementptr inbounds nuw %struct.SDL_Rect, ptr %49, i32 0, i32 0
  %51 = load i32, ptr %50, align 4
  %52 = icmp slt i32 %47, %51
  br i1 %52, label %84, label %53

53:                                               ; preds = %46
  %54 = load i32, ptr %12, align 4
  %55 = load ptr, ptr %10, align 8
  %56 = getelementptr inbounds nuw %struct.SDL_Surface, ptr %55, i32 0, i32 16
  %57 = getelementptr inbounds nuw %struct.SDL_Rect, ptr %56, i32 0, i32 1
  %58 = load i32, ptr %57, align 4
  %59 = icmp slt i32 %54, %58
  br i1 %59, label %84, label %60

60:                                               ; preds = %53
  %61 = load i32, ptr %11, align 4
  %62 = load ptr, ptr %10, align 8
  %63 = getelementptr inbounds nuw %struct.SDL_Surface, ptr %62, i32 0, i32 16
  %64 = getelementptr inbounds nuw %struct.SDL_Rect, ptr %63, i32 0, i32 0
  %65 = load i32, ptr %64, align 4
  %66 = load ptr, ptr %10, align 8
  %67 = getelementptr inbounds nuw %struct.SDL_Surface, ptr %66, i32 0, i32 16
  %68 = getelementptr inbounds nuw %struct.SDL_Rect, ptr %67, i32 0, i32 2
  %69 = load i32, ptr %68, align 4
  %70 = add nsw i32 %65, %69
  %71 = icmp sge i32 %61, %70
  br i1 %71, label %84, label %72

72:                                               ; preds = %60
  %73 = load i32, ptr %12, align 4
  %74 = load ptr, ptr %10, align 8
  %75 = getelementptr inbounds nuw %struct.SDL_Surface, ptr %74, i32 0, i32 16
  %76 = getelementptr inbounds nuw %struct.SDL_Rect, ptr %75, i32 0, i32 1
  %77 = load i32, ptr %76, align 4
  %78 = load ptr, ptr %10, align 8
  %79 = getelementptr inbounds nuw %struct.SDL_Surface, ptr %78, i32 0, i32 16
  %80 = getelementptr inbounds nuw %struct.SDL_Rect, ptr %79, i32 0, i32 3
  %81 = load i32, ptr %80, align 4
  %82 = add nsw i32 %77, %81
  %83 = icmp sge i32 %73, %82
  br i1 %83, label %84, label %85

84:                                               ; preds = %72, %60, %53, %46
  store i1 true, ptr %9, align 1
  br label %216

85:                                               ; preds = %72
  %86 = load i32, ptr %13, align 4
  %87 = icmp eq i32 %86, 1
  br i1 %87, label %91, label %88

88:                                               ; preds = %85
  %89 = load i32, ptr %13, align 4
  %90 = icmp eq i32 %89, 2
  br i1 %90, label %91, label %113

91:                                               ; preds = %88, %85
  %92 = load i8, ptr %14, align 1
  %93 = zext i8 %92 to i32
  %94 = load i8, ptr %17, align 1
  %95 = zext i8 %94 to i32
  %96 = mul i32 %93, %95
  %97 = udiv i32 %96, 255
  %98 = trunc i32 %97 to i8
  store i8 %98, ptr %14, align 1
  %99 = load i8, ptr %15, align 1
  %100 = zext i8 %99 to i32
  %101 = load i8, ptr %17, align 1
  %102 = zext i8 %101 to i32
  %103 = mul i32 %100, %102
  %104 = udiv i32 %103, 255
  %105 = trunc i32 %104 to i8
  store i8 %105, ptr %15, align 1
  %106 = load i8, ptr %16, align 1
  %107 = zext i8 %106 to i32
  %108 = load i8, ptr %17, align 1
  %109 = zext i8 %108 to i32
  %110 = mul i32 %107, %109
  %111 = udiv i32 %110, 255
  %112 = trunc i32 %111 to i8
  store i8 %112, ptr %16, align 1
  br label %113

113:                                              ; preds = %91, %88
  %114 = load ptr, ptr %10, align 8
  %115 = getelementptr inbounds nuw %struct.SDL_Surface, ptr %114, i32 0, i32 10
  %116 = load ptr, ptr %115, align 8
  %117 = getelementptr inbounds nuw %struct.SDL_PixelFormatDetails, ptr %116, i32 0, i32 1
  %118 = load i8, ptr %117, align 4
  %119 = zext i8 %118 to i32
  switch i32 %119, label %188 [
    i32 15, label %120
    i32 16, label %137
    i32 32, label %154
  ]

120:                                              ; preds = %113
  %121 = load ptr, ptr %10, align 8
  %122 = getelementptr inbounds nuw %struct.SDL_Surface, ptr %121, i32 0, i32 10
  %123 = load ptr, ptr %122, align 8
  %124 = getelementptr inbounds nuw %struct.SDL_PixelFormatDetails, ptr %123, i32 0, i32 4
  %125 = load i32, ptr %124, align 4
  switch i32 %125, label %136 [
    i32 31744, label %126
  ]

126:                                              ; preds = %120
  %127 = load ptr, ptr %10, align 8
  %128 = load i32, ptr %11, align 4
  %129 = load i32, ptr %12, align 4
  %130 = load i32, ptr %13, align 4
  %131 = load i8, ptr %14, align 1
  %132 = load i8, ptr %15, align 1
  %133 = load i8, ptr %16, align 1
  %134 = load i8, ptr %17, align 1
  %135 = call zeroext i1 @SDL_BlendPoint_RGB555(ptr noundef %127, i32 noundef %128, i32 noundef %129, i32 noundef %130, i8 noundef zeroext %131, i8 noundef zeroext %132, i8 noundef zeroext %133, i8 noundef zeroext %134)
  store i1 %135, ptr %9, align 1
  br label %216

136:                                              ; preds = %120
  br label %189

137:                                              ; preds = %113
  %138 = load ptr, ptr %10, align 8
  %139 = getelementptr inbounds nuw %struct.SDL_Surface, ptr %138, i32 0, i32 10
  %140 = load ptr, ptr %139, align 8
  %141 = getelementptr inbounds nuw %struct.SDL_PixelFormatDetails, ptr %140, i32 0, i32 4
  %142 = load i32, ptr %141, align 4
  switch i32 %142, label %153 [
    i32 63488, label %143
  ]

143:                                              ; preds = %137
  %144 = load ptr, ptr %10, align 8
  %145 = load i32, ptr %11, align 4
  %146 = load i32, ptr %12, align 4
  %147 = load i32, ptr %13, align 4
  %148 = load i8, ptr %14, align 1
  %149 = load i8, ptr %15, align 1
  %150 = load i8, ptr %16, align 1
  %151 = load i8, ptr %17, align 1
  %152 = call zeroext i1 @SDL_BlendPoint_RGB565(ptr noundef %144, i32 noundef %145, i32 noundef %146, i32 noundef %147, i8 noundef zeroext %148, i8 noundef zeroext %149, i8 noundef zeroext %150, i8 noundef zeroext %151)
  store i1 %152, ptr %9, align 1
  br label %216

153:                                              ; preds = %137
  br label %189

154:                                              ; preds = %113
  %155 = load ptr, ptr %10, align 8
  %156 = getelementptr inbounds nuw %struct.SDL_Surface, ptr %155, i32 0, i32 10
  %157 = load ptr, ptr %156, align 8
  %158 = getelementptr inbounds nuw %struct.SDL_PixelFormatDetails, ptr %157, i32 0, i32 4
  %159 = load i32, ptr %158, align 4
  switch i32 %159, label %187 [
    i32 16711680, label %160
  ]

160:                                              ; preds = %154
  %161 = load ptr, ptr %10, align 8
  %162 = getelementptr inbounds nuw %struct.SDL_Surface, ptr %161, i32 0, i32 10
  %163 = load ptr, ptr %162, align 8
  %164 = getelementptr inbounds nuw %struct.SDL_PixelFormatDetails, ptr %163, i32 0, i32 7
  %165 = load i32, ptr %164, align 4
  %166 = icmp ne i32 %165, 0
  br i1 %166, label %177, label %167

167:                                              ; preds = %160
  %168 = load ptr, ptr %10, align 8
  %169 = load i32, ptr %11, align 4
  %170 = load i32, ptr %12, align 4
  %171 = load i32, ptr %13, align 4
  %172 = load i8, ptr %14, align 1
  %173 = load i8, ptr %15, align 1
  %174 = load i8, ptr %16, align 1
  %175 = load i8, ptr %17, align 1
  %176 = call zeroext i1 @SDL_BlendPoint_XRGB8888(ptr noundef %168, i32 noundef %169, i32 noundef %170, i32 noundef %171, i8 noundef zeroext %172, i8 noundef zeroext %173, i8 noundef zeroext %174, i8 noundef zeroext %175)
  store i1 %176, ptr %9, align 1
  br label %216

177:                                              ; preds = %160
  %178 = load ptr, ptr %10, align 8
  %179 = load i32, ptr %11, align 4
  %180 = load i32, ptr %12, align 4
  %181 = load i32, ptr %13, align 4
  %182 = load i8, ptr %14, align 1
  %183 = load i8, ptr %15, align 1
  %184 = load i8, ptr %16, align 1
  %185 = load i8, ptr %17, align 1
  %186 = call zeroext i1 @SDL_BlendPoint_ARGB8888(ptr noundef %178, i32 noundef %179, i32 noundef %180, i32 noundef %181, i8 noundef zeroext %182, i8 noundef zeroext %183, i8 noundef zeroext %184, i8 noundef zeroext %185)
  store i1 %186, ptr %9, align 1
  br label %216

187:                                              ; preds = %154
  br label %189

188:                                              ; preds = %113
  br label %189

189:                                              ; preds = %188, %187, %153, %136
  %190 = load ptr, ptr %10, align 8
  %191 = getelementptr inbounds nuw %struct.SDL_Surface, ptr %190, i32 0, i32 10
  %192 = load ptr, ptr %191, align 8
  %193 = getelementptr inbounds nuw %struct.SDL_PixelFormatDetails, ptr %192, i32 0, i32 7
  %194 = load i32, ptr %193, align 4
  %195 = icmp ne i32 %194, 0
  br i1 %195, label %206, label %196

196:                                              ; preds = %189
  %197 = load ptr, ptr %10, align 8
  %198 = load i32, ptr %11, align 4
  %199 = load i32, ptr %12, align 4
  %200 = load i32, ptr %13, align 4
  %201 = load i8, ptr %14, align 1
  %202 = load i8, ptr %15, align 1
  %203 = load i8, ptr %16, align 1
  %204 = load i8, ptr %17, align 1
  %205 = call zeroext i1 @SDL_BlendPoint_RGB(ptr noundef %197, i32 noundef %198, i32 noundef %199, i32 noundef %200, i8 noundef zeroext %201, i8 noundef zeroext %202, i8 noundef zeroext %203, i8 noundef zeroext %204)
  store i1 %205, ptr %9, align 1
  br label %216

206:                                              ; preds = %189
  %207 = load ptr, ptr %10, align 8
  %208 = load i32, ptr %11, align 4
  %209 = load i32, ptr %12, align 4
  %210 = load i32, ptr %13, align 4
  %211 = load i8, ptr %14, align 1
  %212 = load i8, ptr %15, align 1
  %213 = load i8, ptr %16, align 1
  %214 = load i8, ptr %17, align 1
  %215 = call zeroext i1 @SDL_BlendPoint_RGBA(ptr noundef %207, i32 noundef %208, i32 noundef %209, i32 noundef %210, i8 noundef zeroext %211, i8 noundef zeroext %212, i8 noundef zeroext %213, i8 noundef zeroext %214)
  store i1 %215, ptr %9, align 1
  br label %216

216:                                              ; preds = %206, %196, %177, %167, %143, %126, %84, %44, %20
  %217 = load i1, ptr %9, align 1
  ret i1 %217
}