; Function Attrs: nounwind uwtable
define hidden zeroext i1 @SDL_BlendPoint(ptr noundef %0, i32 noundef %1, i32 noundef %2, i32 noundef %3, i8 noundef zeroext %4, i8 noundef zeroext %5, i8 noundef zeroext %6, i8 noundef zeroext %7) local_unnamed_addr #0 {
  %9 = tail call zeroext i1 @SDL_SurfaceValid(ptr noundef %0) #4
  br i1 %9, label %12, label %10

10:                                               ; preds = %8
  %11 = tail call zeroext i1 (ptr, ...) @SDL_SetError_REAL(ptr noundef nonnull @.str, ptr noundef nonnull @.str.1) #4
  br label %82

12:                                               ; preds = %8
  %13 = getelementptr inbounds nuw i8, ptr %0, i64 4
  %14 = load i32, ptr %13, align 4
  %.mask = and i32 %14, -268435456
  %.not87 = icmp ne i32 %.mask, 268435456
  %15 = and i32 %14, 63488
  %16 = icmp eq i32 %15, 0
  %or.cond98 = or i1 %.not87, %16
  br i1 %or.cond98, label %.critedge, label %18

.critedge:                                        ; preds = %12
  %17 = tail call zeroext i1 (ptr, ...) @SDL_SetError_REAL(ptr noundef nonnull @.str.2) #4
  br label %82

18:                                               ; preds = %12
  %19 = getelementptr inbounds nuw i8, ptr %0, i64 100
  %20 = load i32, ptr %19, align 4
  %21 = icmp slt i32 %1, %20
  br i1 %21, label %82, label %22

22:                                               ; preds = %18
  %23 = getelementptr inbounds nuw i8, ptr %0, i64 104
  %24 = load i32, ptr %23, align 4
  %25 = icmp slt i32 %2, %24
  br i1 %25, label %82, label %26

26:                                               ; preds = %22
  %27 = getelementptr inbounds nuw i8, ptr %0, i64 108
  %28 = load i32, ptr %27, align 4
  %29 = add nsw i32 %28, %20
  %.not88 = icmp slt i32 %1, %29
  br i1 %.not88, label %30, label %82

30:                                               ; preds = %26
  %31 = getelementptr inbounds nuw i8, ptr %0, i64 112
  %32 = load i32, ptr %31, align 4
  %33 = add nsw i32 %32, %24
  %.not89 = icmp slt i32 %2, %33
  br i1 %.not89, label %34, label %82

34:                                               ; preds = %30
  %35 = add i32 %3, -1
  %or.cond = icmp ult i32 %35, 2
  br i1 %or.cond, label %36, label %50

36:                                               ; preds = %34
  %37 = zext i8 %4 to i32
  %38 = zext i8 %7 to i32
  %39 = mul nuw nsw i32 %38, %37
  %.lhs.trunc = trunc nuw i32 %39 to i16
  %40 = udiv i16 %.lhs.trunc, 255
  %41 = trunc nuw i16 %40 to i8
  %42 = zext i8 %5 to i32
  %43 = mul nuw nsw i32 %38, %42
  %.lhs.trunc93 = trunc nuw i32 %43 to i16
  %44 = udiv i16 %.lhs.trunc93, 255
  %45 = trunc nuw i16 %44 to i8
  %46 = zext i8 %6 to i32
  %47 = mul nuw nsw i32 %38, %46
  %.lhs.trunc95 = trunc nuw i32 %47 to i16
  %48 = udiv i16 %.lhs.trunc95, 255
  %49 = trunc nuw i16 %48 to i8
  br label %50

50:                                               ; preds = %34, %36
  %.081 = phi i8 [ %41, %36 ], [ %4, %34 ]
  %.080 = phi i8 [ %45, %36 ], [ %5, %34 ]
  %.079 = phi i8 [ %49, %36 ], [ %6, %34 ]
  %51 = getelementptr inbounds nuw i8, ptr %0, i64 56
  %52 = load ptr, ptr %51, align 8
  %53 = getelementptr inbounds nuw i8, ptr %52, i64 4
  %54 = load i8, ptr %53, align 4
  switch i8 %54, label %75 [
    i8 15, label %55
    i8 16, label %60
    i8 32, label %65
  ]

55:                                               ; preds = %50
  %56 = getelementptr inbounds nuw i8, ptr %52, i64 8
  %57 = load i32, ptr %56, align 4
  %cond2 = icmp eq i32 %57, 31744
  br i1 %cond2, label %58, label %75

58:                                               ; preds = %55
  %59 = tail call zeroext i1 @SDL_BlendPoint_RGB555(ptr noundef nonnull %0, i32 noundef %1, i32 noundef %2, i32 noundef %3, i8 noundef zeroext %.081, i8 noundef zeroext %.080, i8 noundef zeroext %.079, i8 noundef zeroext %7)
  br label %82

60:                                               ; preds = %50
  %61 = getelementptr inbounds nuw i8, ptr %52, i64 8
  %62 = load i32, ptr %61, align 4
  %cond1 = icmp eq i32 %62, 63488
  br i1 %cond1, label %63, label %75

63:                                               ; preds = %60
  %64 = tail call zeroext i1 @SDL_BlendPoint_RGB565(ptr noundef nonnull %0, i32 noundef %1, i32 noundef %2, i32 noundef %3, i8 noundef zeroext %.081, i8 noundef zeroext %.080, i8 noundef zeroext %.079, i8 noundef zeroext %7)
  br label %82

65:                                               ; preds = %50
  %66 = getelementptr inbounds nuw i8, ptr %52, i64 8
  %67 = load i32, ptr %66, align 4
  %cond = icmp eq i32 %67, 16711680
  br i1 %cond, label %68, label %75

68:                                               ; preds = %65
  %69 = getelementptr inbounds nuw i8, ptr %52, i64 20
  %70 = load i32, ptr %69, align 4
  %.not90 = icmp eq i32 %70, 0
  br i1 %.not90, label %71, label %73

71:                                               ; preds = %68
  %72 = tail call zeroext i1 @SDL_BlendPoint_XRGB8888(ptr noundef nonnull %0, i32 noundef %1, i32 noundef %2, i32 noundef %3, i8 noundef zeroext %.081, i8 noundef zeroext %.080, i8 noundef zeroext %.079, i8 noundef zeroext %7)
  br label %82

73:                                               ; preds = %68
  %74 = tail call zeroext i1 @SDL_BlendPoint_ARGB8888(ptr noundef nonnull %0, i32 noundef %1, i32 noundef %2, i32 noundef %3, i8 noundef zeroext %.081, i8 noundef zeroext %.080, i8 noundef zeroext %.079, i8 noundef zeroext %7)
  br label %82

75:                                               ; preds = %50, %65, %60, %55
  %76 = getelementptr inbounds nuw i8, ptr %52, i64 20
  %77 = load i32, ptr %76, align 4
  %.not91 = icmp eq i32 %77, 0
  br i1 %.not91, label %78, label %80

78:                                               ; preds = %75
  %79 = tail call zeroext i1 @SDL_BlendPoint_RGB(ptr noundef nonnull %0, i32 noundef %1, i32 noundef %2, i32 noundef %3, i8 noundef zeroext %.081, i8 noundef zeroext %.080, i8 noundef zeroext %.079, i8 noundef zeroext %7)
  br label %82

80:                                               ; preds = %75
  %81 = tail call zeroext i1 @SDL_BlendPoint_RGBA(ptr noundef nonnull %0, i32 noundef %1, i32 noundef %2, i32 noundef %3, i8 noundef zeroext %.081, i8 noundef zeroext %.080, i8 noundef zeroext %.079, i8 noundef zeroext %7)
  br label %82

82:                                               ; preds = %18, %22, %26, %30, %80, %78, %73, %71, %63, %58, %.critedge, %10
  %.0 = phi i1 [ %17, %.critedge ], [ %81, %80 ], [ %79, %78 ], [ true, %73 ], [ true, %71 ], [ true, %63 ], [ true, %58 ], [ %11, %10 ], [ true, %30 ], [ true, %26 ], [ true, %22 ], [ true, %18 ]
  ret i1 %.0
}